target datalayout = "e-m:e-p270:32:32-p271:32:32-p272:64:64-i64:64-i128:128-f80:128-n8:16:32:64-S128"
target triple = "x86_64-pc-linux-gnu"

%"class.std::allocator" = type { i8 }
%"class.duckdb_snappy::internal::WorkingMemory" = type { ptr, i64, ptr, ptr, ptr }

@_ZN13duckdb_snappyL10kBlockSizeE = internal constant i64 65536, align 8

; Function Attrs: inlinehint mustprogress nounwind uwtable
define linkonce_odr noundef i32 @_ZN13duckdb_snappy4Bits16Log2FloorNonZeroEj(i32 noundef %0) #3 comdat align 2 {
  %2 = alloca i32, align 4
  store i32 %0, ptr %2, align 4, !tbaa !12
  %3 = load i32, ptr %2, align 4, !tbaa !12
  %4 = call i32 @llvm.ctlz.i32(i32 %3, i1 true)
  %5 = xor i32 31, %4
  ret i32 %5
}

; Function Attrs: mustprogress nounwind uwtable
define linkonce_odr noundef i64 @_ZNKSt15__new_allocatorIcE11_M_max_sizeEv(ptr noundef nonnull align 1 dereferenceable(1) %0) #0 comdat align 2 {
  %2 = alloca ptr, align 8
  store ptr %0, ptr %2, align 8, !tbaa !28
  ret i64 9223372036854775807
}

; Function Attrs: mustprogress nounwind uwtable
define linkonce_odr void @_ZNSt15__new_allocatorIcEC2Ev(ptr noundef nonnull align 1 dereferenceable(1) %0) unnamed_addr #0 comdat align 2 {
  %2 = alloca ptr, align 8
  store ptr %0, ptr %2, align 8, !tbaa !28
  ret void
}

; Function Attrs: inlinehint mustprogress uwtable
define linkonce_odr noundef i32 @_ZN13duckdb_snappy4Bits9Log2FloorEj(i32 noundef %0) #7 comdat align 2 {
  %2 = alloca i32, align 4
  store i32 %0, ptr %2, align 4, !tbaa !12
  %3 = load i32, ptr %2, align 4, !tbaa !12
  %4 = icmp eq i32 %3, 0
  br i1 %4, label %5, label %6

5:                                                ; preds = %1
  br label %9

6:                                                ; preds = %1
  %7 = load i32, ptr %2, align 4, !tbaa !12
  %8 = call noundef i32 @_ZN13duckdb_snappy4Bits16Log2FloorNonZeroEj(i32 noundef %7)
  br label %9

9:                                                ; preds = %6, %5
  %10 = phi i32 [ -1, %5 ], [ %8, %6 ]
  ret i32 %10
}

; Function Attrs: mustprogress nounwind uwtable
define linkonce_odr void @_ZNSt15__new_allocatorIcED2Ev(ptr noundef nonnull align 1 dereferenceable(1) %0) unnamed_addr #0 comdat align 2 {
  %2 = alloca ptr, align 8
  store ptr %0, ptr %2, align 8, !tbaa !28
  ret void
}

; Function Attrs: mustprogress uwtable
define linkonce_odr noundef ptr @_ZNSt15__new_allocatorIcE8allocateEmPKv(ptr noundef nonnull align 1 dereferenceable(1) %0, i64 noundef %1, ptr noundef %2) #1 comdat align 2 {
  %4 = alloca ptr, align 8
  %5 = alloca i64, align 8
  %6 = alloca ptr, align 8
  store ptr %0, ptr %4, align 8, !tbaa !28
  store i64 %1, ptr %5, align 8, !tbaa !3
  store ptr %2, ptr %6, align 8, !tbaa !30
  %7 = load ptr, ptr %4, align 8
  %8 = load i64, ptr %5, align 8, !tbaa !3
  %9 = call noundef i64 @_ZNKSt15__new_allocatorIcE11_M_max_sizeEv(ptr noundef nonnull align 1 dereferenceable(1) %7) #17
  %10 = icmp ugt i64 %8, %9
  %11 = zext i1 %10 to i64
  %12 = call i64 @llvm.expect.i64(i64 %11, i64 0)
  %13 = icmp ne i64 %12, 0
  br i1 %13, label %14, label %19

14:                                               ; preds = %3
  %15 = load i64, ptr %5, align 8, !tbaa !3
  %16 = icmp ugt i64 %15, -1
  br i1 %16, label %17, label %18

17:                                               ; preds = %14
  call void @_ZSt28__throw_bad_array_new_lengthv() #18
  unreachable

18:                                               ; preds = %14
  call void @_ZSt17__throw_bad_allocv() #18
  unreachable

19:                                               ; preds = %3
  %20 = load i64, ptr %5, align 8, !tbaa !3
  %21 = mul i64 %20, 1
  %22 = call noalias noundef nonnull ptr @_Znwm(i64 noundef %21) #19
  ret ptr %22
}

; Function Attrs: mustprogress nounwind uwtable
define available_externally void @_ZNSaIcEC2Ev(ptr noundef nonnull align 1 dereferenceable(1) %0) unnamed_addr #0 align 2 {
  %2 = alloca ptr, align 8
  store ptr %0, ptr %2, align 8, !tbaa !26
  %3 = load ptr, ptr %2, align 8
  call void @_ZNSt15__new_allocatorIcEC2Ev(ptr noundef nonnull align 1 dereferenceable(1) %3) #17
  ret void
}

; Function Attrs: mustprogress nounwind uwtable
define noundef i64 @_ZN13duckdb_snappy19MaxCompressedLengthEm(i64 noundef %0) #0 {
  %2 = alloca i64, align 8
  store i64 %0, ptr %2, align 8, !tbaa !3
  %3 = load i64, ptr %2, align 8, !tbaa !3
  %4 = add i64 32, %3
  %5 = load i64, ptr %2, align 8, !tbaa !3
  %6 = udiv i64 %5, 6
  %7 = add i64 %4, %6
  ret i64 %7
}

; Function Attrs: mustprogress uwtable
define internal noundef i32 @_ZN13duckdb_snappy12_GLOBAL__N_118CalculateTableSizeEj(i32 noundef %0) #1 {
  %2 = alloca i32, align 4
  %3 = alloca i32, align 4
  store i32 %0, ptr %3, align 4, !tbaa !12
  %4 = load i32, ptr %3, align 4, !tbaa !12
  %5 = zext i32 %4 to i64
  %6 = icmp ugt i64 %5, 32768
  br i1 %6, label %7, label %8

7:                                                ; preds = %1
  store i32 32768, ptr %2, align 4
  br label %18

8:                                                ; preds = %1
  %9 = load i32, ptr %3, align 4, !tbaa !12
  %10 = zext i32 %9 to i64
  %11 = icmp ult i64 %10, 256
  br i1 %11, label %12, label %13

12:                                               ; preds = %8
  store i32 256, ptr %2, align 4
  br label %18

13:                                               ; preds = %8
  %14 = load i32, ptr %3, align 4, !tbaa !12
  %15 = sub i32 %14, 1
  %16 = call noundef i32 @_ZN13duckdb_snappy4Bits9Log2FloorEj(i32 noundef %15)
  %17 = shl i32 2, %16
  store i32 %17, ptr %2, align 4
  br label %18

18:                                               ; preds = %13, %12, %7
  %19 = load i32, ptr %2, align 4
  ret i32 %19
}

; Function Attrs: inlinehint mustprogress nounwind uwtable
define linkonce_odr noundef nonnull align 8 dereferenceable(8) ptr @_ZSt3minImERKT_S2_S2_(ptr noundef nonnull align 8 dereferenceable(8) %0, ptr noundef nonnull align 8 dereferenceable(8) %1) #3 comdat {
  %3 = alloca ptr, align 8
  %4 = alloca ptr, align 8
  %5 = alloca ptr, align 8
  store ptr %0, ptr %4, align 8, !tbaa !10
  store ptr %1, ptr %5, align 8, !tbaa !10
  %6 = load ptr, ptr %5, align 8, !tbaa !10
  %7 = load i64, ptr %6, align 8, !tbaa !3
  %8 = load ptr, ptr %4, align 8, !tbaa !10
  %9 = load i64, ptr %8, align 8, !tbaa !3
  %10 = icmp ult i64 %7, %9
  br i1 %10, label %11, label %13

11:                                               ; preds = %2
  %12 = load ptr, ptr %5, align 8, !tbaa !10
  store ptr %12, ptr %3, align 8
  br label %15

13:                                               ; preds = %2
  %14 = load ptr, ptr %4, align 8, !tbaa !10
  store ptr %14, ptr %3, align 8
  br label %15

15:                                               ; preds = %13, %11
  %16 = load ptr, ptr %3, align 8
  ret ptr %16
}

; Function Attrs: mustprogress uwtable
define void @_ZN13duckdb_snappy8internal13WorkingMemoryC2Em(ptr noundef nonnull align 8 dereferenceable(40) %0, i64 noundef %1) unnamed_addr #1 align 2 personality ptr @__gxx_personality_v0 {
  %3 = alloca ptr, align 8
  %4 = alloca i64, align 8
  %5 = alloca i64, align 8
  %6 = alloca i64, align 8
  %7 = alloca %"class.std::allocator", align 1
  %8 = alloca ptr, align 8
  %9 = alloca i32, align 4
  store ptr %0, ptr %3, align 8, !tbaa !17
  store i64 %1, ptr %4, align 8, !tbaa !3
  %10 = load ptr, ptr %3, align 8
  call void @llvm.lifetime.start.p0(i64 8, ptr %5) #17
  %11 = call noundef nonnull align 8 dereferenceable(8) ptr @_ZSt3minImERKT_S2_S2_(ptr noundef nonnull align 8 dereferenceable(8) %4, ptr noundef nonnull align 8 dereferenceable(8) @_ZN13duckdb_snappyL10kBlockSizeE)
  %12 = load i64, ptr %11, align 8, !tbaa !3
  store i64 %12, ptr %5, align 8, !tbaa !3
  call void @llvm.lifetime.start.p0(i64 8, ptr %6) #17
  %13 = load i64, ptr %5, align 8, !tbaa !3
  %14 = trunc i64 %13 to i32
  %15 = call noundef i32 @_ZN13duckdb_snappy12_GLOBAL__N_118CalculateTableSizeEj(i32 noundef %14)
  %16 = zext i32 %15 to i64
  store i64 %16, ptr %6, align 8, !tbaa !3
  %17 = load i64, ptr %6, align 8, !tbaa !3
  %18 = mul i64 %17, 2
  %19 = load i64, ptr %5, align 8, !tbaa !3
  %20 = add i64 %18, %19
  %21 = load i64, ptr %5, align 8, !tbaa !3
  %22 = call noundef i64 @_ZN13duckdb_snappy19MaxCompressedLengthEm(i64 noundef %21)
  %23 = add i64 %20, %22
  %24 = getelementptr inbounds nuw %"class.duckdb_snappy::internal::WorkingMemory", ptr %10, i32 0, i32 1
  store i64 %23, ptr %24, align 8, !tbaa !19
  call void @llvm.lifetime.start.p0(i64 1, ptr %7) #17
  call void @_ZNSaIcEC2Ev(ptr noundef nonnull align 1 dereferenceable(1) %7) #17
  %25 = getelementptr inbounds nuw %"class.duckdb_snappy::internal::WorkingMemory", ptr %10, i32 0, i32 1
  %26 = load i64, ptr %25, align 8, !tbaa !19
  %27 = invoke noundef ptr @_ZNSt15__new_allocatorIcE8allocateEmPKv(ptr noundef nonnull align 1 dereferenceable(1) %7, i64 noundef %26, ptr noundef null)
          to label %28 unwind label %44

28:                                               ; preds = %2
  %29 = getelementptr inbounds nuw %"class.duckdb_snappy::internal::WorkingMemory", ptr %10, i32 0, i32 0
  store ptr %27, ptr %29, align 8, !tbaa !22
  call void @_ZNSt15__new_allocatorIcED2Ev(ptr noundef nonnull align 1 dereferenceable(1) %7) #17
  call void @llvm.lifetime.end.p0(i64 1, ptr %7) #17
  %30 = getelementptr inbounds nuw %"class.duckdb_snappy::internal::WorkingMemory", ptr %10, i32 0, i32 0
  %31 = load ptr, ptr %30, align 8, !tbaa !22
  %32 = getelementptr inbounds nuw %"class.duckdb_snappy::internal::WorkingMemory", ptr %10, i32 0, i32 2
  store ptr %31, ptr %32, align 8, !tbaa !23
  %33 = getelementptr inbounds nuw %"class.duckdb_snappy::internal::WorkingMemory", ptr %10, i32 0, i32 0
  %34 = load ptr, ptr %33, align 8, !tbaa !22
  %35 = load i64, ptr %6, align 8, !tbaa !3
  %36 = mul i64 %35, 2
  %37 = getelementptr inbounds nuw i8, ptr %34, i64 %36
  %38 = getelementptr inbounds nuw %"class.duckdb_snappy::internal::WorkingMemory", ptr %10, i32 0, i32 3
  store ptr %37, ptr %38, align 8, !tbaa !24
  %39 = getelementptr inbounds nuw %"class.duckdb_snappy::internal::WorkingMemory", ptr %10, i32 0, i32 3
  %40 = load ptr, ptr %39, align 8, !tbaa !24
  %41 = load i64, ptr %5, align 8, !tbaa !3
  %42 = getelementptr inbounds nuw i8, ptr %40, i64 %41
  %43 = getelementptr inbounds nuw %"class.duckdb_snappy::internal::WorkingMemory", ptr %10, i32 0, i32 4
  store ptr %42, ptr %43, align 8, !tbaa !25
  call void @llvm.lifetime.end.p0(i64 8, ptr %6) #17
  call void @llvm.lifetime.end.p0(i64 8, ptr %5) #17
  ret void

44:                                               ; preds = %2
  %45 = landingpad { ptr, i32 }
          cleanup
  %46 = extractvalue { ptr, i32 } %45, 0
  store ptr %46, ptr %8, align 8
  %47 = extractvalue { ptr, i32 } %45, 1
  store i32 %47, ptr %9, align 4
  call void @_ZNSt15__new_allocatorIcED2Ev(ptr noundef nonnull align 1 dereferenceable(1) %7) #17
  call void @llvm.lifetime.end.p0(i64 1, ptr %7) #17
  call void @llvm.lifetime.end.p0(i64 8, ptr %6) #17
  call void @llvm.lifetime.end.p0(i64 8, ptr %5) #17
  br label %48

48:                                               ; preds = %44
  %49 = load ptr, ptr %8, align 8
  %50 = load i32, ptr %9, align 4
  %51 = insertvalue { ptr, i32 } poison, ptr %49, 0
  %52 = insertvalue { ptr, i32 } %51, i32 %50, 1
  resume { ptr, i32 } %52
}