; Function Attrs: mustprogress uwtable
define void @_ZN13duckdb_snappy8internal13WorkingMemoryC2Em(ptr noundef nonnull writeonly align 8 captures(none) dereferenceable(40) initializes((0, 40)) %0, i64 noundef %1) unnamed_addr #3 align 2 personality ptr @__gxx_personality_v0 {
  %.sroa.speculated = tail call i64 @llvm.umin.i64(i64 %1, i64 65536)
  %3 = trunc nuw nsw i64 %.sroa.speculated to i32
  %4 = icmp ugt i64 %1, 32768
  br i1 %4, label %_ZN13duckdb_snappy12_GLOBAL__N_118CalculateTableSizeEj.exit, label %5

5:                                                ; preds = %2
  %6 = icmp samesign ult i64 %1, 256
  br i1 %6, label %_ZN13duckdb_snappy12_GLOBAL__N_118CalculateTableSizeEj.exit, label %7

7:                                                ; preds = %5
  %8 = add nsw i32 %3, -1
  %9 = tail call range(i32 0, 33) i32 @llvm.ctlz.i32(i32 %8, i1 true)
  %10 = xor i32 %9, 31
  %11 = shl i32 4, %10
  %12 = zext i32 %11 to i64
  br label %_ZN13duckdb_snappy12_GLOBAL__N_118CalculateTableSizeEj.exit

_ZN13duckdb_snappy12_GLOBAL__N_118CalculateTableSizeEj.exit: ; preds = %2, %5, %7
  %.0.i = phi i64 [ %12, %7 ], [ 65536, %2 ], [ 512, %5 ]
  %13 = udiv i32 %3, 6
  %.zext = zext nneg i32 %13 to i64
  %factor = shl nuw nsw i64 %.sroa.speculated, 1
  %14 = add nuw nsw i64 %factor, 32
  %15 = add nuw nsw i64 %14, %.zext
  %16 = add nuw nsw i64 %15, %.0.i
  %17 = getelementptr inbounds nuw i8, ptr %0, i64 8
  store i64 %16, ptr %17, align 8, !tbaa !8
  %18 = tail call noalias noundef nonnull ptr @_Znwm(i64 noundef %16) #25
  store ptr %18, ptr %0, align 8, !tbaa !13
  %19 = getelementptr inbounds nuw i8, ptr %0, i64 16
  store ptr %18, ptr %19, align 8, !tbaa !14
  %20 = getelementptr inbounds nuw i8, ptr %18, i64 %.0.i
  %21 = getelementptr inbounds nuw i8, ptr %0, i64 24
  store ptr %20, ptr %21, align 8, !tbaa !15
  %22 = getelementptr inbounds nuw i8, ptr %20, i64 %.sroa.speculated
  %23 = getelementptr inbounds nuw i8, ptr %0, i64 32
  store ptr %22, ptr %23, align 8, !tbaa !16
  ret void
}